target datalayout = "e-m:e-p270:32:32-p271:32:32-p272:64:64-i64:64-i128:128-f80:128-n8:16:32:64-S128"
target triple = "x86_64-pc-linux-gnu"

%struct.SlruCtlData = type { ptr, i16, i8, i32, ptr, [64 x i8] }
%struct.CommitTimestampShared = type { i32, %struct.CommitTimestampEntry, i8 }
%struct.CommitTimestampEntry = type { i64, i16 }
%union.LWLockPadded = type { %struct.LWLock, [112 x i8] }
%struct.LWLock = type { i16, %struct.pg_atomic_uint32, %struct.proclist_head }
%struct.pg_atomic_uint32 = type { i32 }
%struct.proclist_head = type { i32, i32 }
%struct.TransamVariablesData = type { i32, i32, %struct.FullTransactionId, i32, i32, i32, i32, i32, i32, i32, i32, %struct.FullTransactionId, i64, i32 }
%struct.FullTransactionId = type { i64 }

@commitTsShared = internal global ptr null, align 8
@MainLWLockArray = external global ptr, align 8
@TransamVariables = external global ptr, align 8
@CommitTsCtlData = internal global %struct.SlruCtlData zeroinitializer, align 8

; Function Attrs: nounwind uwtable
define internal void @DeactivateCommitTs() #0 {
  %1 = load ptr, ptr @MainLWLockArray, align 8
  %2 = getelementptr inbounds %union.LWLockPadded, ptr %1, i64 39
  %3 = call zeroext i1 @LWLockAcquire(ptr noundef %2, i32 noundef 0)
  %4 = load ptr, ptr @commitTsShared, align 8
  %5 = getelementptr inbounds nuw %struct.CommitTimestampShared, ptr %4, i32 0, i32 2
  store i8 0, ptr %5, align 8
  %6 = load ptr, ptr @commitTsShared, align 8
  %7 = getelementptr inbounds nuw %struct.CommitTimestampShared, ptr %6, i32 0, i32 0
  store i32 0, ptr %7, align 8
  br label %8

8:                                                ; preds = %0
  %9 = load ptr, ptr @commitTsShared, align 8
  %10 = getelementptr inbounds nuw %struct.CommitTimestampShared, ptr %9, i32 0, i32 1
  %11 = getelementptr inbounds nuw %struct.CommitTimestampEntry, ptr %10, i32 0, i32 0
  store i64 -9223372036854775808, ptr %11, align 8
  br label %12

12:                                               ; preds = %8
  %13 = load ptr, ptr @commitTsShared, align 8
  %14 = getelementptr inbounds nuw %struct.CommitTimestampShared, ptr %13, i32 0, i32 1
  %15 = getelementptr inbounds nuw %struct.CommitTimestampEntry, ptr %14, i32 0, i32 1
  store i16 0, ptr %15, align 8
  %16 = load ptr, ptr @TransamVariables, align 8
  %17 = getelementptr inbounds nuw %struct.TransamVariablesData, ptr %16, i32 0, i32 9
  store i32 0, ptr %17, align 8
  %18 = load ptr, ptr @TransamVariables, align 8
  %19 = getelementptr inbounds nuw %struct.TransamVariablesData, ptr %18, i32 0, i32 10
  store i32 0, ptr %19, align 4
  %20 = call zeroext i1 @SlruScanDirectory(ptr noundef @CommitTsCtlData, ptr noundef @SlruScanDirCbDeleteAll, ptr noundef null)
  %21 = load ptr, ptr @MainLWLockArray, align 8
  %22 = getelementptr inbounds %union.LWLockPadded, ptr %21, i64 39
  call void @LWLockRelease(ptr noundef %22)
  ret void
}

; Function Attrs: nounwind uwtable
define dso_local void @CommitTsParameterChange(i1 noundef zeroext %0, i1 noundef zeroext %1) #0 {
  %3 = alloca i8, align 1
  %4 = alloca i8, align 1
  %5 = zext i1 %0 to i8
  store i8 %5, ptr %3, align 1
  %6 = zext i1 %1 to i8
  store i8 %6, ptr %4, align 1
  %7 = load i8, ptr %3, align 1, !range !4, !noundef !5
  %8 = trunc i8 %7 to i1
  br i1 %8, label %9, label %16

9:                                                ; preds = %2
  %10 = load ptr, ptr @commitTsShared, align 8
  %11 = getelementptr inbounds nuw %struct.CommitTimestampShared, ptr %10, i32 0, i32 2
  %12 = load i8, ptr %11, align 8, !range !4, !noundef !5
  %13 = trunc i8 %12 to i1
  br i1 %13, label %15, label %14

14:                                               ; preds = %9
  call void @ActivateCommitTs()
  br label %15

15:                                               ; preds = %14, %9
  br label %23

16:                                               ; preds = %2
  %17 = load ptr, ptr @commitTsShared, align 8
  %18 = getelementptr inbounds nuw %struct.CommitTimestampShared, ptr %17, i32 0, i32 2
  %19 = load i8, ptr %18, align 8, !range !4, !noundef !5
  %20 = trunc i8 %19 to i1
  br i1 %20, label %21, label %22

21:                                               ; preds = %16
  call void @DeactivateCommitTs()
  br label %22

22:                                               ; preds = %21, %16
  br label %23

23:                                               ; preds = %22, %15
  ret void
}