; Function Attrs: nounwind uwtable
define dso_local void @CommitTsParameterChange(i1 noundef zeroext %0, i1 noundef zeroext %1) local_unnamed_addr #0 {
  %3 = load ptr, ptr @commitTsShared, align 8
  %4 = getelementptr inbounds nuw i8, ptr %3, i64 24
  %5 = load i8, ptr %4, align 8, !range !4, !noundef !5
  %6 = trunc nuw i8 %5 to i1
  br i1 %0, label %7, label %9

7:                                                ; preds = %2
  br i1 %6, label %24, label %8

8:                                                ; preds = %7
  tail call fastcc void @ActivateCommitTs()
  br label %24

9:                                                ; preds = %2
  br i1 %6, label %10, label %24

10:                                               ; preds = %9
  %11 = load ptr, ptr @MainLWLockArray, align 8
  %12 = getelementptr inbounds nuw i8, ptr %11, i64 4992
  %13 = tail call zeroext i1 @LWLockAcquire(ptr noundef nonnull %12, i32 noundef 0) #9
  %14 = load ptr, ptr @commitTsShared, align 8
  %15 = getelementptr inbounds nuw i8, ptr %14, i64 24
  store i8 0, ptr %15, align 8
  store i32 0, ptr %14, align 8
  %16 = getelementptr inbounds nuw i8, ptr %14, i64 8
  store i64 -9223372036854775808, ptr %16, align 8
  %17 = getelementptr inbounds nuw i8, ptr %14, i64 16
  store i16 0, ptr %17, align 8
  %18 = load ptr, ptr @TransamVariables, align 8
  %19 = getelementptr inbounds nuw i8, ptr %18, i64 40
  store i32 0, ptr %19, align 8
  %20 = getelementptr inbounds nuw i8, ptr %18, i64 44
  store i32 0, ptr %20, align 4
  %21 = tail call zeroext i1 @SlruScanDirectory(ptr noundef nonnull @CommitTsCtlData, ptr noundef nonnull @SlruScanDirCbDeleteAll, ptr noundef null) #9
  %22 = load ptr, ptr @MainLWLockArray, align 8
  %23 = getelementptr inbounds nuw i8, ptr %22, i64 4992
  tail call void @LWLockRelease(ptr noundef nonnull %23) #9
  br label %24

24:                                               ; preds = %9, %10, %7, %8
  ret void
}